target datalayout = "e-m:e-p270:32:32-p271:32:32-p272:64:64-i64:64-i128:128-f80:128-n8:16:32:64-S128"
target triple = "x86_64-pc-linux-gnu"

%struct.mbedtls_aes_context = type { i32, i64, [68 x i32] }

; Function Attrs: nounwind uwtable
define hidden i32 @mbedtls_aesni_crypt_ecb(ptr noundef %0, i32 noundef %1, ptr noundef %2, ptr noundef %3) #0 {
  %5 = alloca ptr, align 8
  %6 = alloca i32, align 4
  %7 = alloca ptr, align 8
  %8 = alloca ptr, align 8
  store ptr %0, ptr %5, align 8, !tbaa !8
  store i32 %1, ptr %6, align 4, !tbaa !3
  store ptr %2, ptr %7, align 8, !tbaa !11
  store ptr %3, ptr %8, align 8, !tbaa !11
  %9 = load ptr, ptr %5, align 8, !tbaa !8
  %10 = getelementptr inbounds nuw %struct.mbedtls_aes_context, ptr %9, i32 0, i32 0
  %11 = load i32, ptr %10, align 8, !tbaa !13
  %12 = load ptr, ptr %5, align 8, !tbaa !8
  %13 = getelementptr inbounds nuw %struct.mbedtls_aes_context, ptr %12, i32 0, i32 2
  %14 = getelementptr inbounds [68 x i32], ptr %13, i64 0, i64 0
  %15 = load ptr, ptr %5, align 8, !tbaa !8
  %16 = getelementptr inbounds nuw %struct.mbedtls_aes_context, ptr %15, i32 0, i32 1
  %17 = load i64, ptr %16, align 8, !tbaa !16
  %18 = getelementptr inbounds nuw i32, ptr %14, i64 %17
  %19 = load i32, ptr %6, align 4, !tbaa !3
  %20 = load ptr, ptr %7, align 8, !tbaa !11
  %21 = load ptr, ptr %8, align 8, !tbaa !11
  call void asm sideeffect "movdqu    ($3), %xmm0    \0A\09movdqu    ($1), %xmm1    \0A\09pxor      %xmm1, %xmm0  \0A\09add       $$16, $1         \0A\09subl      $$1, $0          \0A\09test      $2, $2          \0A\09jz        2f              \0A\091:                        \0A\09movdqu    ($1), %xmm1    \0A\09.byte 0x66,0x0F,0x38,0xDC,0xC1\0A\09add       $$16, $1         \0A\09subl      $$1, $0          \0A\09jnz       1b              \0A\09movdqu    ($1), %xmm1    \0A\09.byte 0x66,0x0F,0x38,0xDD,0xC1\0A\09jmp       3f              \0A\092:                        \0A\09movdqu    ($1), %xmm1    \0A\09.byte 0x66,0x0F,0x38,0xDE,0xC1\0A\09add       $$16, $1         \0A\09subl      $$1, $0          \0A\09jnz       2b              \0A\09movdqu    ($1), %xmm1    \0A\09.byte 0x66,0x0F,0x38,0xDF,0xC1\0A\093:                        \0A\09movdqu    %xmm0, ($4)    \0A\09", "r,r,r,r,r,~{memory},~{cc},~{xmm0},~{xmm1},~{dirflag},~{fpsr},~{flags}"(i32 %11, ptr %18, i32 %19, ptr %20, ptr %21) #4, !srcloc !17
  ret i32 0
}