; Function Attrs: nounwind uwtable
define hidden noundef i32 @mbedtls_aesni_crypt_ecb(ptr noundef %0, i32 noundef %1, ptr noundef %2, ptr noundef %3) local_unnamed_addr #1 {
  %5 = load i32, ptr %0, align 8, !tbaa !8
  %6 = getelementptr inbounds nuw i8, ptr %0, i64 16
  %7 = getelementptr inbounds nuw i8, ptr %0, i64 8
  %8 = load i64, ptr %7, align 8, !tbaa !11
  %9 = getelementptr inbounds nuw i32, ptr %6, i64 %8
  tail call void asm sideeffect "movdqu    ($3), %xmm0    \0A\09movdqu    ($1), %xmm1    \0A\09pxor      %xmm1, %xmm0  \0A\09add       $$16, $1         \0A\09subl      $$1, $0          \0A\09test      $2, $2          \0A\09jz        2f              \0A\091:                        \0A\09movdqu    ($1), %xmm1    \0A\09.byte 0x66,0x0F,0x38,0xDC,0xC1\0A\09add       $$16, $1         \0A\09subl      $$1, $0          \0A\09jnz       1b              \0A\09movdqu    ($1), %xmm1    \0A\09.byte 0x66,0x0F,0x38,0xDD,0xC1\0A\09jmp       3f              \0A\092:                        \0A\09movdqu    ($1), %xmm1    \0A\09.byte 0x66,0x0F,0x38,0xDE,0xC1\0A\09add       $$16, $1         \0A\09subl      $$1, $0          \0A\09jnz       2b              \0A\09movdqu    ($1), %xmm1    \0A\09.byte 0x66,0x0F,0x38,0xDF,0xC1\0A\093:                        \0A\09movdqu    %xmm0, ($4)    \0A\09", "r,r,r,r,r,~{memory},~{cc},~{xmm0},~{xmm1},~{dirflag},~{fpsr},~{flags}"(i32 %5, ptr nonnull %9, i32 %1, ptr %2, ptr %3) #5, !srcloc !12
  ret i32 0
}